target datalayout = "e-m:e-p270:32:32-p271:32:32-p272:64:64-i64:64-f80:128-n8:16:32:64-S128"
target triple = "x86_64-pc-linux-gnu"

@.str = private unnamed_addr constant [3 x i8] c"%d\00", align 1
@.str.1 = private unnamed_addr constant [4 x i8] c"No\0A\00", align 1
@.str.2 = private unnamed_addr constant [4 x i8] c"%d\0A\00", align 1

; Function Attrs: noinline nounwind uwtable
define dso_local void @main() #0 {
  %1 = alloca i32, align 4
  %2 = alloca i32, align 4
  %3 = alloca i32, align 4
  %4 = alloca i32, align 4
  %5 = alloca i32, align 4
  %6 = alloca [301 x i32], align 16
  %7 = alloca i8, align 1
  store i32 1, i32* %1, align 4
  store i32 0, i32* %3, align 4
  store i32 0, i32* %5, align 4
  %8 = load i32, i32* %1, align 4
  %9 = sext i32 %8 to i64
  %10 = getelementptr inbounds [301 x i32], [301 x i32]* %6, i64 0, i64 %9
  %11 = call i32 (i8*, ...) @__isoc99_scanf(i8* getelementptr inbounds ([3 x i8], [3 x i8]* @.str, i64 0, i64 0), i32* %10)
  br label %12

12:                                               ; preds = %17, %0
  %13 = call i32 @getchar()
  %14 = trunc i32 %13 to i8
  store i8 %14, i8* %7, align 1
  %15 = sext i8 %14 to i32
  %16 = icmp eq i32 %15, 44
  br i1 %16, label %17, label %24

17:                                               ; preds = %12
  %18 = load i32, i32* %1, align 4
  %19 = add nsw i32 %18, 1
  store i32 %19, i32* %1, align 4
  %20 = load i32, i32* %1, align 4
  %21 = sext i32 %20 to i64
  %22 = getelementptr inbounds [301 x i32], [301 x i32]* %6, i64 0, i64 %21
  %23 = call i32 (i8*, ...) @__isoc99_scanf(i8* getelementptr inbounds ([3 x i8], [3 x i8]* @.str, i64 0, i64 0), i32* %22)
  br label %12

24:                                               ; preds = %12
  %25 = load i32, i32* %1, align 4
  %26 = icmp eq i32 %25, 1
  br i1 %26, label %27, label %29

27:                                               ; preds = %24
  %28 = call i32 (i8*, ...) @printf(i8* getelementptr inbounds ([4 x i8], [4 x i8]* @.str.1, i64 0, i64 0))
  br label %123

29:                                               ; preds = %24
  store i32 1, i32* %4, align 4
  br label %30

30:                                               ; preds = %46, %29
  %31 = load i32, i32* %4, align 4
  %32 = load i32, i32* %1, align 4
  %33 = icmp sle i32 %31, %32
  br i1 %33, label %34, label %49

34:                                               ; preds = %30
  %35 = load i32, i32* %4, align 4
  %36 = sext i32 %35 to i64
  %37 = getelementptr inbounds [301 x i32], [301 x i32]* %6, i64 0, i64 %36
  %38 = load i32, i32* %37, align 4
  %39 = getelementptr inbounds [301 x i32], [301 x i32]* %6, i64 0, i64 1
  %40 = load i32, i32* %39, align 4
  %41 = icmp eq i32 %38, %40
  br i1 %41, label %42, label %45

42:                                               ; preds = %34
  %43 = load i32, i32* %5, align 4
  %44 = add nsw i32 %43, 1
  store i32 %44, i32* %5, align 4
  br label %45

45:                                               ; preds = %42, %34
  br label %46

46:                                               ; preds = %45
  %47 = load i32, i32* %4, align 4
  %48 = add nsw i32 %47, 1
  store i32 %48, i32* %4, align 4
  br label %30

49:                                               ; preds = %30
  %50 = load i32, i32* %5, align 4
  %51 = load i32, i32* %1, align 4
  %52 = icmp eq i32 %50, %51
  br i1 %52, label %53, label %55

53:                                               ; preds = %49
  %54 = call i32 (i8*, ...) @printf(i8* getelementptr inbounds ([4 x i8], [4 x i8]* @.str.1, i64 0, i64 0))
  br label %122

55:                                               ; preds = %49
  %56 = getelementptr inbounds [301 x i32], [301 x i32]* %6, i64 0, i64 1
  %57 = load i32, i32* %56, align 4
  store i32 %57, i32* %2, align 4
  store i32 1, i32* %4, align 4
  br label %58

58:                                               ; preds = %75, %55
  %59 = load i32, i32* %4, align 4
  %60 = load i32, i32* %1, align 4
  %61 = icmp sle i32 %59, %60
  br i1 %61, label %62, label %78

62:                                               ; preds = %58
  %63 = load i32, i32* %4, align 4
  %64 = sext i32 %63 to i64
  %65 = getelementptr inbounds [301 x i32], [301 x i32]* %6, i64 0, i64 %64
  %66 = load i32, i32* %65, align 4
  %67 = load i32, i32* %2, align 4
  %68 = icmp sgt i32 %66, %67
  br i1 %68, label %69, label %74

69:                                               ; preds = %62
  %70 = load i32, i32* %4, align 4
  %71 = sext i32 %70 to i64
  %72 = getelementptr inbounds [301 x i32], [301 x i32]* %6, i64 0, i64 %71
  %73 = load i32, i32* %72, align 4
  store i32 %73, i32* %2, align 4
  br label %74

74:                                               ; preds = %69, %62
  br label %75

75:                                               ; preds = %74
  %76 = load i32, i32* %4, align 4
  %77 = add nsw i32 %76, 1
  store i32 %77, i32* %4, align 4
  br label %58

78:                                               ; preds = %58
  store i32 1, i32* %4, align 4
  br label %79

79:                                               ; preds = %95, %78
  %80 = load i32, i32* %4, align 4
  %81 = load i32, i32* %1, align 4
  %82 = icmp sle i32 %80, %81
  br i1 %82, label %83, label %98

83:                                               ; preds = %79
  %84 = load i32, i32* %4, align 4
  %85 = sext i32 %84 to i64
  %86 = getelementptr inbounds [301 x i32], [301 x i32]* %6, i64 0, i64 %85
  %87 = load i32, i32* %86, align 4
  %88 = load i32, i32* %2, align 4
  %89 = icmp eq i32 %87, %88
  br i1 %89, label %90, label %94

90:                                               ; preds = %83
  %91 = load i32, i32* %4, align 4
  %92 = sext i32 %91 to i64
  %93 = getelementptr inbounds [301 x i32], [301 x i32]* %6, i64 0, i64 %92
  store i32 0, i32* %93, align 4
  br label %94

94:                                               ; preds = %90, %83
  br label %95

95:                                               ; preds = %94
  %96 = load i32, i32* %4, align 4
  %97 = add nsw i32 %96, 1
  store i32 %97, i32* %4, align 4
  br label %79

98:                                               ; preds = %79
  store i32 1, i32* %4, align 4
  br label %99

99:                                               ; preds = %116, %98
  %100 = load i32, i32* %4, align 4
  %101 = load i32, i32* %1, align 4
  %102 = icmp sle i32 %100, %101
  br i1 %102, label %103, label %119

103:                                              ; preds = %99
  %104 = load i32, i32* %4, align 4
  %105 = sext i32 %104 to i64
  %106 = getelementptr inbounds [301 x i32], [301 x i32]* %6, i64 0, i64 %105
  %107 = load i32, i32* %106, align 4
  %108 = load i32, i32* %3, align 4
  %109 = icmp sgt i32 %107, %108
  br i1 %109, label %110, label %115

110:                                              ; preds = %103
  %111 = load i32, i32* %4, align 4
  %112 = sext i32 %111 to i64
  %113 = getelementptr inbounds [301 x i32], [301 x i32]* %6, i64 0, i64 %112
  %114 = load i32, i32* %113, align 4
  store i32 %114, i32* %3, align 4
  br label %115

115:                                              ; preds = %110, %103
  br label %116

116:                                              ; preds = %115
  %117 = load i32, i32* %4, align 4
  %118 = add nsw i32 %117, 1
  store i32 %118, i32* %4, align 4
  br label %99

119:                                              ; preds = %99
  %120 = load i32, i32* %3, align 4
  %121 = call i32 (i8*, ...) @printf(i8* getelementptr inbounds ([4 x i8], [4 x i8]* @.str.2, i64 0, i64 0), i32 %120)
  br label %122

122:                                              ; preds = %119, %53
  br label %123

123:                                              ; preds = %122, %27
  ret void
}